target datalayout = "e-m:e-p270:32:32-p271:32:32-p272:64:64-i64:64-i128:128-f80:128-n8:16:32:64-S128"
target triple = "x86_64-pc-linux-gnu"

%"struct.realclosure::mpbq_config::interval" = type { %class.mpbq, %class.mpbq, i8, i8, i8, i8, [4 x i8] }
%class.mpbq = type <{ %class.mpz, i32, [4 x i8] }>
%class.mpz = type { i32, i8, ptr }
%"struct.realclosure::extension" = type { i32, i32, %"struct.realclosure::mpbq_config::interval", ptr }
%"class.realclosure::manager" = type { ptr }
%class.im_default_config = type { ptr }
%"struct.realclosure::mpbq_config" = type { ptr }
%class.mpq = type { %class.mpz, %class.mpz }
%"struct.realclosure::manager::imp" = type <{ ptr, ptr, i8, [7 x i8], ptr, %class.mpz_matrix_manager, %"struct.realclosure::mpbq_config::numeral_manager", %class.interval_manager, %class.interval_manager.0, [3 x %class.ptr_vector], ptr, %"struct.realclosure::mk_pi_interval", ptr, %"struct.realclosure::mk_e_interval", ptr, %class.ptr_vector.1, %class.ptr_vector, i8, i8, [2 x i8], i32, i32, i32, %class._scoped_numeral, %class._scoped_numeral, i8, [3 x i8], i32, i8, [7 x i8] }>
%class.mpz_matrix_manager = type { ptr, ptr }
%"struct.realclosure::mpbq_config::numeral_manager" = type <{ %class.mpbq_manager, i32, i8, [3 x i8] }>
%class.mpbq_manager = type { ptr, %class.mpz, %class.mpz, %class.mpbq, %class.mpz, %class.mpz, %class.mpz, %class.mpbq, %class.mpbq, %class.mpz, %class.mpz, %class.mpz }
%class.interval_manager = type { ptr, %class.im_default_config, %class.mpq, %class.mpq, %class.mpq, %class.mpq, %class.mpq, %class.mpq, %class.mpq, %class.mpq, %class.mpq, i32, [4 x i8], %"struct.im_default_config::interval", %"struct.im_default_config::interval", %"struct.im_default_config::interval", %"struct.im_default_config::interval" }
%"struct.im_default_config::interval" = type <{ %class.mpq, %class.mpq, i8, [7 x i8] }>
%class.interval_manager.0 = type { ptr, %"struct.realclosure::mpbq_config", %class.mpbq, %class.mpbq, %class.mpbq, %class.mpbq, %class.mpbq, %class.mpbq, %class.mpbq, %class.mpbq, %class.mpbq, i32, [4 x i8], %"struct.realclosure::mpbq_config::interval", %"struct.realclosure::mpbq_config::interval", %"struct.realclosure::mpbq_config::interval", %"struct.realclosure::mpbq_config::interval" }
%"struct.realclosure::mk_pi_interval" = type { %"class.realclosure::mk_interval" }
%"class.realclosure::mk_interval" = type { ptr }
%"struct.realclosure::mk_e_interval" = type { %"class.realclosure::mk_interval" }
%class.ptr_vector.1 = type { %class.vector.2 }
%class.vector.2 = type { ptr }
%class.ptr_vector = type { %class.vector }
%class.vector = type { ptr }
%class._scoped_numeral = type { ptr, %class.mpbq }
%"class.realclosure::num" = type { ptr }
%"struct.realclosure::rational_value" = type { %"struct.realclosure::value", %class.mpq }
%"struct.realclosure::value" = type { i32, i8, [3 x i8], %"struct.realclosure::mpbq_config::interval", ptr }
%"struct.realclosure::rational_function_value" = type <{ %"struct.realclosure::value", %class.ptr_array, %class.ptr_array, ptr, i8, [7 x i8] }>
%class.ptr_array = type { %class.array }
%class.array = type { ptr }

@.str.2 = private unnamed_addr constant [29 x i8] c"UNEXPECTED CODE WAS REACHED.\00", align 1
@.str.22 = private unnamed_addr constant [120 x i8] c"generated/home/dtcxzyw/WorkSpace/Projects/compilers/llvm-opt-benchmark/bench/z3/z3/src/math/realclosure/realclosure.cpp\00", align 1

; Function Attrs: inlinehint mustprogress nounwind uwtable
define linkonce_odr hidden noundef zeroext i1 @_ZNK3mpz8is_smallEv(ptr noundef nonnull align 8 dereferenceable(16) %0) #5 comdat align 2 {
  %2 = alloca ptr, align 8
  store ptr %0, ptr %2, align 8, !tbaa !94
  %3 = load ptr, ptr %2, align 8
  %4 = getelementptr inbounds nuw %class.mpz, ptr %3, i32 0, i32 1
  %5 = load i8, ptr %4, align 4
  %6 = and i8 %5, 1
  %7 = zext i8 %6 to i32
  %8 = icmp eq i32 %7, 0
  ret i1 %8
}

; Function Attrs: inlinehint mustprogress nounwind uwtable
define linkonce_odr hidden noundef i32 @_ZNK3mpz5valueEv(ptr noundef nonnull align 8 dereferenceable(16) %0) #5 comdat align 2 {
  %2 = alloca ptr, align 8
  store ptr %0, ptr %2, align 8, !tbaa !94
  %3 = load ptr, ptr %2, align 8
  %4 = getelementptr inbounds nuw %class.mpz, ptr %3, i32 0, i32 0
  %5 = load i32, ptr %4, align 8, !tbaa !182
  ret i32 %5
}

; Function Attrs: mustprogress uwtable
define linkonce_odr hidden noundef zeroext i1 @_ZN11mpz_managerILb0EE8is_smallERK3mpz(ptr noundef nonnull align 8 dereferenceable(16) %0) #6 comdat align 2 {
  %2 = alloca ptr, align 8
  store ptr %0, ptr %2, align 8, !tbaa !94
  %3 = load ptr, ptr %2, align 8, !tbaa !94
  %4 = call noundef zeroext i1 @_ZNK3mpz8is_smallEv(ptr noundef nonnull align 8 dereferenceable(16) %3)
  ret i1 %4
}

; Function Attrs: mustprogress uwtable
define linkonce_odr hidden noundef zeroext i1 @_ZN11mpz_managerILb0EE6is_oneERK3mpz(ptr noundef nonnull align 8 dereferenceable(16) %0) #6 comdat align 2 {
  %2 = alloca ptr, align 8
  store ptr %0, ptr %2, align 8, !tbaa !94
  %3 = load ptr, ptr %2, align 8, !tbaa !94
  %4 = call noundef zeroext i1 @_ZN11mpz_managerILb0EE8is_smallERK3mpz(ptr noundef nonnull align 8 dereferenceable(16) %3)
  br i1 %4, label %5, label %9

5:                                                ; preds = %1
  %6 = load ptr, ptr %2, align 8, !tbaa !94
  %7 = call noundef i32 @_ZNK3mpz5valueEv(ptr noundef nonnull align 8 dereferenceable(16) %6)
  %8 = icmp eq i32 %7, 1
  br label %9

9:                                                ; preds = %5, %1
  %10 = phi i1 [ false, %1 ], [ %8, %5 ]
  ret i1 %10
}

; Function Attrs: mustprogress nounwind uwtable
define linkonce_odr hidden noundef ptr @_ZN11realclosure7manager3imp14to_nz_rationalEPNS_5valueE(ptr noundef %0) #4 comdat align 2 {
  %2 = alloca ptr, align 8
  store ptr %0, ptr %2, align 8, !tbaa !99
  %3 = load ptr, ptr %2, align 8, !tbaa !99
  ret ptr %3
}

; Function Attrs: mustprogress nounwind uwtable
define linkonce_odr hidden noundef zeroext i1 @_ZNK11realclosure5value11is_rationalEv(ptr noundef nonnull align 8 dereferenceable(72) %0) #4 comdat align 2 {
  %2 = alloca ptr, align 8
  store ptr %0, ptr %2, align 8, !tbaa !99
  %3 = load ptr, ptr %2, align 8
  %4 = getelementptr inbounds nuw %"struct.realclosure::value", ptr %3, i32 0, i32 1
  %5 = load i8, ptr %4, align 4, !tbaa !205, !range !109, !noundef !110
  %6 = trunc i8 %5 to i1
  ret i1 %6
}

; Function Attrs: mustprogress nounwind uwtable
define linkonce_odr hidden noundef ptr @_ZN11realclosure7manager3imp20to_rational_functionEPNS_5valueE(ptr noundef %0) #4 comdat align 2 {
  %2 = alloca ptr, align 8
  store ptr %0, ptr %2, align 8, !tbaa !99
  %3 = load ptr, ptr %2, align 8, !tbaa !99
  ret ptr %3
}

; Function Attrs: mustprogress uwtable
define linkonce_odr hidden noundef zeroext i1 @_ZN11mpq_managerILb0EE6is_oneERK3mpz(ptr noundef nonnull align 8 dereferenceable(16) %0) #6 comdat align 2 {
  %2 = alloca ptr, align 8
  store ptr %0, ptr %2, align 8, !tbaa !94
  %3 = load ptr, ptr %2, align 8, !tbaa !94
  %4 = call noundef zeroext i1 @_ZN11mpz_managerILb0EE6is_oneERK3mpz(ptr noundef nonnull align 8 dereferenceable(16) %3)
  ret i1 %4
}

; Function Attrs: mustprogress nounwind uwtable
define linkonce_odr hidden noundef ptr @_ZN11realclosure7manager3imp14to_nz_rationalERKNS_3numE(ptr noundef nonnull align 8 dereferenceable(8) %0) #4 comdat align 2 {
  %2 = alloca ptr, align 8
  store ptr %0, ptr %2, align 8, !tbaa !76
  %3 = load ptr, ptr %2, align 8, !tbaa !76
  %4 = getelementptr inbounds nuw %"class.realclosure::num", ptr %3, i32 0, i32 0
  %5 = load ptr, ptr %4, align 8, !tbaa !78
  %6 = call noundef ptr @_ZN11realclosure7manager3imp14to_nz_rationalEPNS_5valueE(ptr noundef %5)
  ret ptr %6
}

; Function Attrs: mustprogress nounwind uwtable
define linkonce_odr hidden noundef zeroext i1 @_ZN11realclosure7manager3imp14is_nz_rationalEPNS_5valueE(ptr noundef %0) #4 comdat align 2 {
  %2 = alloca ptr, align 8
  store ptr %0, ptr %2, align 8, !tbaa !99
  %3 = load ptr, ptr %2, align 8, !tbaa !99
  %4 = call noundef zeroext i1 @_ZNK11realclosure5value11is_rationalEv(ptr noundef nonnull align 8 dereferenceable(72) %3)
  ret i1 %4
}

; Function Attrs: mustprogress nounwind uwtable
define linkonce_odr hidden noundef zeroext i1 @_ZN11realclosure7manager3imp7is_zeroEPNS_5valueE(ptr noundef %0) #4 comdat align 2 {
  %2 = alloca ptr, align 8
  store ptr %0, ptr %2, align 8, !tbaa !99
  %3 = load ptr, ptr %2, align 8, !tbaa !99
  %4 = icmp eq ptr %3, null
  ret i1 %4
}

; Function Attrs: mustprogress nounwind uwtable
define linkonce_odr hidden noundef zeroext i1 @_ZN11realclosure7manager3imp16is_algebraic_intERKNS_3numE(ptr noundef nonnull align 8 dereferenceable(1497) %0, ptr noundef nonnull align 8 dereferenceable(8) %1) #4 comdat align 2 {
  %3 = alloca ptr, align 8
  %4 = alloca ptr, align 8
  store ptr %0, ptr %3, align 8, !tbaa !28
  store ptr %1, ptr %4, align 8, !tbaa !76
  ret i1 false
}

; Function Attrs: mustprogress nounwind uwtable
define linkonce_odr hidden noundef i32 @_ZNK11realclosure9extension3kndEv(ptr noundef nonnull align 8 dereferenceable(72) %0) #4 comdat align 2 {
  %2 = alloca ptr, align 8
  store ptr %0, ptr %2, align 8, !tbaa !13
  %3 = load ptr, ptr %2, align 8
  %4 = getelementptr inbounds nuw %"struct.realclosure::extension", ptr %3, i32 0, i32 1
  %5 = load i32, ptr %4, align 4
  %6 = and i32 %5, 3
  ret i32 %6
}

; Function Attrs: mustprogress nounwind uwtable
define linkonce_odr hidden noundef ptr @_ZNK11realclosure23rational_function_value3extEv(ptr noundef nonnull align 8 dereferenceable(97) %0) #4 comdat align 2 {
  %2 = alloca ptr, align 8
  store ptr %0, ptr %2, align 8, !tbaa !92
  %3 = load ptr, ptr %2, align 8
  %4 = getelementptr inbounds nuw %"struct.realclosure::rational_function_value", ptr %3, i32 0, i32 3
  %5 = load ptr, ptr %4, align 8, !tbaa !215
  ret ptr %5
}

; Function Attrs: mustprogress nounwind uwtable
define linkonce_odr hidden noundef ptr @_ZN11realclosure7manager3imp20to_rational_functionERKNS_3numE(ptr noundef nonnull align 8 dereferenceable(8) %0) #4 comdat align 2 {
  %2 = alloca ptr, align 8
  store ptr %0, ptr %2, align 8, !tbaa !76
  %3 = load ptr, ptr %2, align 8, !tbaa !76
  %4 = getelementptr inbounds nuw %"class.realclosure::num", ptr %3, i32 0, i32 0
  %5 = load ptr, ptr %4, align 8, !tbaa !78
  %6 = call noundef ptr @_ZN11realclosure7manager3imp20to_rational_functionEPNS_5valueE(ptr noundef %5)
  ret ptr %6
}

; Function Attrs: mustprogress uwtable
define linkonce_odr hidden noundef zeroext i1 @_ZN11mpq_managerILb0EE6is_intERK3mpq(ptr noundef nonnull align 8 dereferenceable(32) %0) #6 comdat align 2 {
  %2 = alloca ptr, align 8
  store ptr %0, ptr %2, align 8, !tbaa !96
  %3 = load ptr, ptr %2, align 8, !tbaa !96
  %4 = getelementptr inbounds nuw %class.mpq, ptr %3, i32 0, i32 1
  %5 = call noundef zeroext i1 @_ZN11mpq_managerILb0EE6is_oneERK3mpz(ptr noundef nonnull align 8 dereferenceable(16) %4)
  ret i1 %5
}

; Function Attrs: mustprogress uwtable
define linkonce_odr hidden noundef nonnull align 8 dereferenceable(32) ptr @_ZN11realclosure7manager3imp6to_mpqERKNS_3numE(ptr noundef nonnull align 8 dereferenceable(8) %0) #6 comdat align 2 {
  %2 = alloca ptr, align 8
  store ptr %0, ptr %2, align 8, !tbaa !76
  %3 = load ptr, ptr %2, align 8, !tbaa !76
  %4 = call noundef ptr @_ZN11realclosure7manager3imp14to_nz_rationalERKNS_3numE(ptr noundef nonnull align 8 dereferenceable(8) %3)
  %5 = getelementptr inbounds nuw %"struct.realclosure::rational_value", ptr %4, i32 0, i32 1
  ret ptr %5
}

; Function Attrs: mustprogress nounwind uwtable
define linkonce_odr hidden noundef nonnull align 8 dereferenceable(728) ptr @_ZNK11realclosure7manager3imp2qmEv(ptr noundef nonnull align 8 dereferenceable(1497) %0) #4 comdat align 2 {
  %2 = alloca ptr, align 8
  store ptr %0, ptr %2, align 8, !tbaa !28
  %3 = load ptr, ptr %2, align 8
  %4 = getelementptr inbounds nuw %"struct.realclosure::manager::imp", ptr %3, i32 0, i32 4
  %5 = load ptr, ptr %4, align 8, !tbaa !62
  ret ptr %5
}

; Function Attrs: mustprogress nounwind uwtable
define linkonce_odr hidden noundef zeroext i1 @_ZN11realclosure7manager3imp14is_nz_rationalERKNS_3numE(ptr noundef nonnull align 8 dereferenceable(8) %0) #4 comdat align 2 {
  %2 = alloca ptr, align 8
  store ptr %0, ptr %2, align 8, !tbaa !76
  %3 = load ptr, ptr %2, align 8, !tbaa !76
  %4 = getelementptr inbounds nuw %"class.realclosure::num", ptr %3, i32 0, i32 0
  %5 = load ptr, ptr %4, align 8, !tbaa !78
  %6 = call noundef zeroext i1 @_ZN11realclosure7manager3imp14is_nz_rationalEPNS_5valueE(ptr noundef %5)
  ret i1 %6
}

; Function Attrs: mustprogress nounwind uwtable
define linkonce_odr hidden noundef zeroext i1 @_ZN11realclosure7manager3imp7is_zeroERKNS_3numE(ptr noundef nonnull align 8 dereferenceable(8) %0) #4 comdat align 2 {
  %2 = alloca ptr, align 8
  store ptr %0, ptr %2, align 8, !tbaa !76
  %3 = load ptr, ptr %2, align 8, !tbaa !76
  %4 = getelementptr inbounds nuw %"class.realclosure::num", ptr %3, i32 0, i32 0
  %5 = load ptr, ptr %4, align 8, !tbaa !78
  %6 = call noundef zeroext i1 @_ZN11realclosure7manager3imp7is_zeroEPNS_5valueE(ptr noundef %5)
  ret i1 %6
}

; Function Attrs: mustprogress uwtable
define linkonce_odr hidden noundef zeroext i1 @_ZN11realclosure7manager3imp6is_intERKNS_3numE(ptr noundef nonnull align 8 dereferenceable(1497) %0, ptr noundef nonnull align 8 dereferenceable(8) %1) #6 comdat align 2 {
  %3 = alloca i1, align 1
  %4 = alloca ptr, align 8
  %5 = alloca ptr, align 8
  %6 = alloca ptr, align 8
  %7 = alloca i32, align 4
  store ptr %0, ptr %4, align 8, !tbaa !28
  store ptr %1, ptr %5, align 8, !tbaa !76
  %8 = load ptr, ptr %4, align 8
  %9 = load ptr, ptr %5, align 8, !tbaa !76
  %10 = call noundef zeroext i1 @_ZN11realclosure7manager3imp7is_zeroERKNS_3numE(ptr noundef nonnull align 8 dereferenceable(8) %9)
  br i1 %10, label %11, label %12

11:                                               ; preds = %2
  store i1 true, ptr %3, align 1
  br label %33

12:                                               ; preds = %2
  %13 = load ptr, ptr %5, align 8, !tbaa !76
  %14 = call noundef zeroext i1 @_ZN11realclosure7manager3imp14is_nz_rationalERKNS_3numE(ptr noundef nonnull align 8 dereferenceable(8) %13)
  br i1 %14, label %15, label %20

15:                                               ; preds = %12
  %16 = call noundef nonnull align 8 dereferenceable(728) ptr @_ZNK11realclosure7manager3imp2qmEv(ptr noundef nonnull align 8 dereferenceable(1497) %8)
  %17 = load ptr, ptr %5, align 8, !tbaa !76
  %18 = call noundef nonnull align 8 dereferenceable(32) ptr @_ZN11realclosure7manager3imp6to_mpqERKNS_3numE(ptr noundef nonnull align 8 dereferenceable(8) %17)
  %19 = call noundef zeroext i1 @_ZN11mpq_managerILb0EE6is_intERK3mpq(ptr noundef nonnull align 8 dereferenceable(32) %18)
  store i1 %19, ptr %3, align 1
  br label %33

20:                                               ; preds = %12
  call void @llvm.lifetime.start.p0(i64 8, ptr %6) #3
  %21 = load ptr, ptr %5, align 8, !tbaa !76
  %22 = call noundef ptr @_ZN11realclosure7manager3imp20to_rational_functionERKNS_3numE(ptr noundef nonnull align 8 dereferenceable(8) %21)
  store ptr %22, ptr %6, align 8, !tbaa !92
  %23 = load ptr, ptr %6, align 8, !tbaa !92
  %24 = call noundef ptr @_ZNK11realclosure23rational_function_value3extEv(ptr noundef nonnull align 8 dereferenceable(97) %23)
  %25 = call noundef i32 @_ZNK11realclosure9extension3kndEv(ptr noundef nonnull align 8 dereferenceable(72) %24)
  switch i32 %25, label %31 [
    i32 0, label %26
    i32 1, label %27
    i32 2, label %28
  ]

26:                                               ; preds = %20
  store i1 false, ptr %3, align 1
  store i32 1, ptr %7, align 4
  br label %32

27:                                               ; preds = %20
  store i1 false, ptr %3, align 1
  store i32 1, ptr %7, align 4
  br label %32

28:                                               ; preds = %20
  %29 = load ptr, ptr %5, align 8, !tbaa !76
  %30 = call noundef zeroext i1 @_ZN11realclosure7manager3imp16is_algebraic_intERKNS_3numE(ptr noundef nonnull align 8 dereferenceable(1497) %8, ptr noundef nonnull align 8 dereferenceable(8) %29)
  store i1 %30, ptr %3, align 1
  store i32 1, ptr %7, align 4
  br label %32

31:                                               ; preds = %20
  call void @_Z26notify_assertion_violationPKciS0_(ptr noundef @.str.22, i32 noundef 2493, ptr noundef @.str.2)
  call void @_Z18invoke_exit_actionj(i32 noundef 114)
  store i1 false, ptr %3, align 1
  store i32 1, ptr %7, align 4
  br label %32

32:                                               ; preds = %31, %28, %27, %26
  call void @llvm.lifetime.end.p0(i64 8, ptr %6) #3
  br label %33

33:                                               ; preds = %32, %15, %11
  %34 = load i1, ptr %3, align 1
  ret i1 %34
}

; Function Attrs: mustprogress uwtable
define hidden noundef zeroext i1 @_ZN11realclosure7manager6is_intERKNS_3numE(ptr noundef nonnull align 8 dereferenceable(8) %0, ptr noundef nonnull align 8 dereferenceable(8) %1) #6 align 2 {
  %3 = alloca ptr, align 8
  %4 = alloca ptr, align 8
  store ptr %0, ptr %3, align 8, !tbaa !15
  store ptr %1, ptr %4, align 8, !tbaa !76
  %5 = load ptr, ptr %3, align 8
  %6 = getelementptr inbounds nuw %"class.realclosure::manager", ptr %5, i32 0, i32 0
  %7 = load ptr, ptr %6, align 8, !tbaa !25
  %8 = load ptr, ptr %4, align 8, !tbaa !76
  %9 = call noundef zeroext i1 @_ZN11realclosure7manager3imp6is_intERKNS_3numE(ptr noundef nonnull align 8 dereferenceable(1497) %7, ptr noundef nonnull align 8 dereferenceable(8) %8)
  ret i1 %9
}