; Function Attrs: mustprogress uwtable
define hidden noundef zeroext i1 @_ZN11realclosure7manager6is_intERKNS_3numE(ptr noundef nonnull readonly align 8 captures(none) dereferenceable(8) %0, ptr noundef nonnull readonly align 8 captures(none) dereferenceable(8) %1) local_unnamed_addr #5 align 2 {
  %3 = load ptr, ptr %1, align 8, !tbaa !84
  %4 = icmp eq ptr %3, null
  br i1 %4, label %_ZN11realclosure7manager3imp6is_intERKNS_3numE.exit, label %5

5:                                                ; preds = %2
  %6 = getelementptr inbounds nuw i8, ptr %3, i64 4
  %7 = load i8, ptr %6, align 4, !tbaa !61, !range !105, !noundef !106
  %8 = trunc nuw i8 %7 to i1
  %9 = getelementptr inbounds nuw i8, ptr %3, i64 88
  br i1 %8, label %10, label %18

10:                                               ; preds = %5
  %11 = getelementptr inbounds nuw i8, ptr %3, i64 92
  %12 = load i8, ptr %11, align 4
  %13 = and i8 %12, 1
  %14 = icmp eq i8 %13, 0
  %15 = load i32, ptr %9, align 8
  %16 = icmp eq i32 %15, 1
  %17 = select i1 %14, i1 %16, i1 false
  br label %_ZN11realclosure7manager3imp6is_intERKNS_3numE.exit

18:                                               ; preds = %5
  %19 = load ptr, ptr %9, align 8, !tbaa !108
  %20 = getelementptr inbounds nuw i8, ptr %19, i64 4
  %21 = load i32, ptr %20, align 4
  %22 = and i32 %21, 3
  %switch.not.i = icmp eq i32 %22, 3
  br i1 %switch.not.i, label %23, label %_ZN11realclosure7manager3imp6is_intERKNS_3numE.exit

23:                                               ; preds = %18
  tail call void @_Z26notify_assertion_violationPKciS0_(ptr noundef nonnull @.str.22, i32 noundef 2493, ptr noundef nonnull @.str.2)
  tail call void @_Z18invoke_exit_actionj(i32 noundef 114)
  br label %_ZN11realclosure7manager3imp6is_intERKNS_3numE.exit

_ZN11realclosure7manager3imp6is_intERKNS_3numE.exit: ; preds = %2, %10, %18, %23
  %.0.i = phi i1 [ %17, %10 ], [ true, %2 ], [ false, %23 ], [ false, %18 ]
  ret i1 %.0.i
}